; Function Attrs: nounwind uwtable
define internal fastcc noundef ptr @_readTargetEntry() unnamed_addr #0 {
  %1 = alloca i32, align 4
  %2 = tail call noundef ptr @palloc0(i64 noundef 48) #10
  store i32 62, ptr %2, align 4
  call void @llvm.lifetime.start.p0(i64 4, ptr nonnull %1) #10
  %3 = call ptr @pg_strtok(ptr noundef nonnull %1) #10
  %4 = call ptr @nodeRead(ptr noundef null, i32 noundef 0) #10
  %5 = getelementptr inbounds nuw i8, ptr %2, i64 8
  store ptr %4, ptr %5, align 8
  %6 = call ptr @pg_strtok(ptr noundef nonnull %1) #10
  %7 = call ptr @pg_strtok(ptr noundef nonnull %1) #10
  %8 = call i64 @strtol(ptr noundef nonnull captures(none) %7, ptr noundef null, i32 noundef 10) #10
  %9 = trunc i64 %8 to i16
  %10 = getelementptr inbounds nuw i8, ptr %2, i64 16
  store i16 %9, ptr %10, align 8
  %11 = call ptr @pg_strtok(ptr noundef nonnull %1) #10
  %12 = call ptr @pg_strtok(ptr noundef nonnull %1) #10
  %13 = load i32, ptr %1, align 4
  switch i32 %13, label %23 [
    i32 0, label %nullable_string.exit
    i32 2, label %14
  ]

14:                                               ; preds = %0
  %15 = load i8, ptr %12, align 1
  %16 = icmp eq i8 %15, 34
  br i1 %16, label %17, label %23

17:                                               ; preds = %14
  %18 = getelementptr inbounds nuw i8, ptr %12, i64 1
  %19 = load i8, ptr %18, align 1
  %20 = icmp eq i8 %19, 34
  br i1 %20, label %21, label %23

21:                                               ; preds = %17
  %22 = call ptr @pstrdup(ptr noundef nonnull @.str.326) #10
  br label %nullable_string.exit

23:                                               ; preds = %17, %14, %0
  %24 = call ptr @debackslash(ptr noundef %12, i32 noundef %13) #10
  br label %nullable_string.exit

nullable_string.exit:                             ; preds = %0, %21, %23
  %.0.i = phi ptr [ %22, %21 ], [ %24, %23 ], [ null, %0 ]
  %25 = getelementptr inbounds nuw i8, ptr %2, i64 24
  store ptr %.0.i, ptr %25, align 8
  %26 = call ptr @pg_strtok(ptr noundef nonnull %1) #10
  %27 = call ptr @pg_strtok(ptr noundef nonnull %1) #10
  %28 = call i64 @strtoul(ptr noundef captures(none) %27, ptr noundef null, i32 noundef 10) #10
  %29 = trunc i64 %28 to i32
  %30 = getelementptr inbounds nuw i8, ptr %2, i64 32
  store i32 %29, ptr %30, align 8
  %31 = call ptr @pg_strtok(ptr noundef nonnull %1) #10
  %32 = call ptr @pg_strtok(ptr noundef nonnull %1) #10
  %33 = call i64 @strtoul(ptr noundef captures(none) %32, ptr noundef null, i32 noundef 10) #10
  %34 = trunc i64 %33 to i32
  %35 = getelementptr inbounds nuw i8, ptr %2, i64 36
  store i32 %34, ptr %35, align 4
  %36 = call ptr @pg_strtok(ptr noundef nonnull %1) #10
  %37 = call ptr @pg_strtok(ptr noundef nonnull %1) #10
  %38 = call i64 @strtol(ptr noundef nonnull captures(none) %37, ptr noundef null, i32 noundef 10) #10
  %39 = trunc i64 %38 to i16
  %40 = getelementptr inbounds nuw i8, ptr %2, i64 40
  store i16 %39, ptr %40, align 8
  %41 = call ptr @pg_strtok(ptr noundef nonnull %1) #10
  %42 = call ptr @pg_strtok(ptr noundef nonnull %1) #10
  %43 = load i8, ptr %42, align 1
  %44 = icmp eq i8 %43, 116
  %45 = getelementptr inbounds nuw i8, ptr %2, i64 42
  %46 = zext i1 %44 to i8
  store i8 %46, ptr %45, align 2
  call void @llvm.lifetime.end.p0(i64 4, ptr nonnull %1) #10
  ret ptr %2
}